; Function Attrs: mustprogress uwtable
define hidden noundef zeroext i1 @_ZNK13proof_checker9match_appEPK4exprRP9func_declR10ptr_vectorIS0_E(ptr nocapture noundef nonnull readnone align 8 dereferenceable(156) %this, ptr noundef readonly %e, ptr nocapture noundef nonnull writeonly align 8 dereferenceable(8) %d, ptr noundef nonnull align 8 dereferenceable(8) %terms) local_unnamed_addr #4 align 2 {
entry:
  %m_kind.i = getelementptr inbounds i8, ptr %e, i64 4
  %bf.load.i = load i32, ptr %m_kind.i, align 4
  %bf.clear.i = and i32 %bf.load.i, 65535
  %cmp = icmp eq i32 %bf.clear.i, 0
  br i1 %cmp, label %if.then, label %return

if.then:                                          ; preds = %entry
  %m_decl.i = getelementptr inbounds i8, ptr %e, i64 16
  %0 = load ptr, ptr %m_decl.i, align 8
  store ptr %0, ptr %d, align 8
  %m_num_args.i = getelementptr inbounds i8, ptr %e, i64 24
  %1 = load i32, ptr %m_num_args.i, align 8
  %idx.ext.i = zext i32 %1 to i64
  %add.ptr.i.idx = shl nuw nsw i64 %idx.ext.i, 3
  %2 = getelementptr i8, ptr %e, i64 %add.ptr.i.idx
  %add.ptr.i.ptr = getelementptr i8, ptr %2, i64 32
  %cmp7.not9 = icmp eq i32 %1, 0
  br i1 %cmp7.not9, label %return, label %for.body.preheader

for.body.preheader:                               ; preds = %if.then
  %m_args.i.ptr = getelementptr inbounds i8, ptr %e, i64 32
  br label %for.body

for.body:                                         ; preds = %for.body.preheader, %_ZN6vectorIP4exprLb0EjE9push_backERKS1_.exit
  %__begin2.010 = phi ptr [ %incdec.ptr, %_ZN6vectorIP4exprLb0EjE9push_backERKS1_.exit ], [ %m_args.i.ptr, %for.body.preheader ]
  %3 = load ptr, ptr %__begin2.010, align 8
  %4 = load ptr, ptr %terms, align 8
  %cmp.i = icmp eq ptr %4, null
  br i1 %cmp.i, label %if.then.i, label %lor.lhs.false.i

lor.lhs.false.i:                                  ; preds = %for.body
  %arrayidx.i = getelementptr inbounds i8, ptr %4, i64 -4
  %5 = load i32, ptr %arrayidx.i, align 4
  %arrayidx4.i = getelementptr inbounds i8, ptr %4, i64 -8
  %6 = load i32, ptr %arrayidx4.i, align 4
  %cmp5.i = icmp eq i32 %5, %6
  br i1 %cmp5.i, label %if.then.i, label %_ZN6vectorIP4exprLb0EjE9push_backERKS1_.exit

if.then.i:                                        ; preds = %lor.lhs.false.i, %for.body
  tail call void @_ZN6vectorIP4exprLb0EjE13expand_vectorEv(ptr noundef nonnull align 8 dereferenceable(8) %terms)
  %.pre.i = load ptr, ptr %terms, align 8
  %arrayidx8.phi.trans.insert.i = getelementptr inbounds i8, ptr %.pre.i, i64 -4
  %.pre1.i = load i32, ptr %arrayidx8.phi.trans.insert.i, align 4
  br label %_ZN6vectorIP4exprLb0EjE9push_backERKS1_.exit

_ZN6vectorIP4exprLb0EjE9push_backERKS1_.exit:     ; preds = %lor.lhs.false.i, %if.then.i
  %7 = phi i32 [ %.pre1.i, %if.then.i ], [ %5, %lor.lhs.false.i ]
  %8 = phi ptr [ %.pre.i, %if.then.i ], [ %4, %lor.lhs.false.i ]
  %idx.ext.i7 = zext i32 %7 to i64
  %add.ptr.i8 = getelementptr inbounds ptr, ptr %8, i64 %idx.ext.i7
  store ptr %3, ptr %add.ptr.i8, align 8
  %9 = load ptr, ptr %terms, align 8
  %arrayidx10.i = getelementptr inbounds i8, ptr %9, i64 -4
  %10 = load i32, ptr %arrayidx10.i, align 4
  %inc.i = add i32 %10, 1
  store i32 %inc.i, ptr %arrayidx10.i, align 4
  %incdec.ptr = getelementptr inbounds i8, ptr %__begin2.010, i64 8
  %cmp7.not = icmp eq ptr %incdec.ptr, %add.ptr.i.ptr
  br i1 %cmp7.not, label %return, label %for.body

return:                                           ; preds = %_ZN6vectorIP4exprLb0EjE9push_backERKS1_.exit, %if.then, %entry
  ret i1 %cmp
}